; Function Attrs: null_pointer_is_valid sspstrong uwtable
define noundef zeroext i16 @de_d_gb_call_ref(ptr noundef %0, ptr noundef %1, ptr readnone captures(none) %2, i32 noundef %3, i32 %4, ptr readnone captures(none) %5, i32 %6) #1 {
  %8 = load i32, ptr @hf_gsm_a_group_call_reference, align 4
  %9 = tail call ptr @proto_tree_add_item(ptr noundef %1, i32 noundef %8, ptr noundef %0, i32 noundef %3, i32 noundef 4, i32 noundef 0)
  %10 = load i32, ptr @hf_gsm_a_service_flag, align 4
  %11 = tail call ptr @proto_tree_add_item(ptr noundef %1, i32 noundef %10, ptr noundef %0, i32 noundef %3, i32 noundef 4, i32 noundef 0)
  %12 = load i32, ptr @hf_gsm_a_af_acknowledgement, align 4
  %13 = tail call ptr @proto_tree_add_item(ptr noundef %1, i32 noundef %12, ptr noundef %0, i32 noundef %3, i32 noundef 4, i32 noundef 0)
  %14 = load i32, ptr @hf_gsm_a_call_priority, align 4
  %15 = tail call ptr @proto_tree_add_item(ptr noundef %1, i32 noundef %14, ptr noundef %0, i32 noundef %3, i32 noundef 4, i32 noundef 0)
  %16 = add i32 %3, 4
  %17 = load i32, ptr @hf_gsm_a_ciphering_info, align 4
  %18 = tail call ptr @proto_tree_add_item(ptr noundef %1, i32 noundef %17, ptr noundef %0, i32 noundef %16, i32 noundef 1, i32 noundef 0)
  %19 = load i32, ptr @hf_gsm_a_spare_bits, align 4
  %20 = shl i32 %16, 3
  %21 = or disjoint i32 %20, 4
  %22 = tail call ptr @proto_tree_add_bits_item(ptr noundef %1, i32 noundef %19, ptr noundef %0, i32 noundef %21, i32 noundef 4, i32 noundef 0)
  ret i16 5
}